(dp1
S'output'
p2
S''
sS'layer'
p3
S'Framework'
p4
sS'code'
p5
S''
sS'snapshot'
p6
(dp7
S'exception'
p8
(dp9
S'__getslice__'
p10
S"<method-wrapper '__getslice__' of exceptions.SyntaxError object>"
p11
sS'text'
p12
S'"extent \'layout.html\'\\n"'
p13
sS'__str__'
p14
S"<method-wrapper '__str__' of exceptions.SyntaxError object>"
p15
sS'__reduce__'
p16
S'<built-in method __reduce__ of exceptions.SyntaxError object>'
p17
sS'__dict__'
p18
S'{}'
p19
sS'__sizeof__'
p20
S'<built-in method __sizeof__ of exceptions.SyntaxError object>'
p21
sS'message'
p22
S"''"
p23
sS'__init__'
p24
S"<method-wrapper '__init__' of exceptions.SyntaxError object>"
p25
sS'__setattr__'
p26
S"<method-wrapper '__setattr__' of exceptions.SyntaxError object>"
p27
sS'__reduce_ex__'
p28
S'<built-in method __reduce_ex__ of exceptions.SyntaxError object>'
p29
sS'__new__'
p30
S'<built-in method __new__ of type object>'
p31
sS'__format__'
p32
S'<built-in method __format__ of exceptions.SyntaxError object>'
p33
sS'__class__'
p34
S"<type 'exceptions.SyntaxError'>"
p35
sS'filename'
p36
S"r'C:\\Users\\Godwithus\\Desktop\\Codetrain\\Beginner\\we...eddit_clone\\views\\default/list_post_by_votes.html'"
p37
sS'lineno'
p38
S'2'
sS'msg'
p39
S"'invalid syntax'"
p40
sS'__doc__'
p41
S"'Invalid syntax.'"
p42
sS'__getitem__'
p43
S"<method-wrapper '__getitem__' of exceptions.SyntaxError object>"
p44
sS'__setstate__'
p45
S'<built-in method __setstate__ of exceptions.SyntaxError object>'
p46
sS'__getattribute__'
p47
S"<method-wrapper '__getattribute__' of exceptions.SyntaxError object>"
p48
sS'print_file_and_line'
p49
S'None'
p50
sS'args'
p51
S'(\'invalid syntax\', (r\'C:\\Users\\Godwithus\\Desktop\\Codetrain\\Beginner\\we...eddit_clone\\views\\default/list_post_by_votes.html\', 2, 20, "extent \'layout.html\'\\n"))'
p52
sS'__subclasshook__'
p53
S'<built-in method __subclasshook__ of type object>'
p54
sS'offset'
p55
S'20'
p56
sS'__unicode__'
p57
S'<built-in method __unicode__ of exceptions.SyntaxError object>'
p58
sS'__delattr__'
p59
S"<method-wrapper '__delattr__' of exceptions.SyntaxError object>"
p60
sS'__repr__'
p61
S"<method-wrapper '__repr__' of exceptions.SyntaxError object>"
p62
sS'__hash__'
p63
S"<method-wrapper '__hash__' of exceptions.SyntaxError object>"
p64
ssS'evalue'
p65
S'invalid syntax (default/list_post_by_votes.html, line 2)'
p66
sS'request'
p67
cgluon.html
XML_unpickle
p68
(S's{\x91\x00\x00<div><table><tr><td style="font-weight:bold;vertical-align:top;">ajax</td><td style="vertical-align:top;">:</td><td><div>False</div></td></tr><tr><td style="font-weight:bold;vertical-align:top;">application</td><td style="vertical-align:top;">:</td><td><div>reddit_clone</div></td></tr><tr><td style="font-weight:bold;vertical-align:top;">args</td><td style="vertical-align:top;">:</td><td><div><table><tr><td><div>Programming</div></td></tr></table></div></td></tr><tr><td style="font-weight:bold;vertical-align:top;">cid</td><td style="vertical-align:top;">:</td><td><div>None</div></td></tr><tr><td style="font-weight:bold;vertical-align:top;">client</td><td style="vertical-align:top;">:</td><td><div>127.0.0.1</div></td></tr><tr><td style="font-weight:bold;vertical-align:top;">controller</td><td style="vertical-align:top;">:</td><td><div>default</div></td></tr><tr><td style="font-weight:bold;vertical-align:top;">cookies</td><td style="vertical-align:top;">:</td><td><div><table><tr><td style="font-weight:bold;vertical-align:top;">session_id_add_notes</td><td style="vertical-align:top;">:</td><td><div>127.0.0.1-8d0d0853-1c51-4df9-b6c5-c163fe0ca36c<table><tr><td style="font-weight:bold;vertical-align:top;">comment</td><td style="vertical-align:top;">:</td><td><div></div></td></tr><tr><td style="font-weight:bold;vertical-align:top;">domain</td><td style="vertical-align:top;">:</td><td><div></div></td></tr><tr><td style="font-weight:bold;vertical-align:top;">expires</td><td style="vertical-align:top;">:</td><td><div></div></td></tr><tr><td style="font-weight:bold;vertical-align:top;">httponly</td><td style="vertical-align:top;">:</td><td><div></div></td></tr><tr><td style="font-weight:bold;vertical-align:top;">max-age</td><td style="vertical-align:top;">:</td><td><div></div></td></tr><tr><td style="font-weight:bold;vertical-align:top;">path</td><td style="vertical-align:top;">:</td><td><div></div></td></tr><tr><td style="font-weight:bold;vertical-align:top;">secure</td><td style="vertical-align:top;">:</td><td><div></div></td></tr><tr><td style="font-weight:bold;vertical-align:top;">version</td><td style="vertical-align:top;">:</td><td><div></div></td></tr></table></div></td></tr><tr><td style="font-weight:bold;vertical-align:top;">session_id_admin</td><td style="vertical-align:top;">:</td><td><div>127.0.0.1-72b45055-5479-4d48-9867-7655f52fc6db<table><tr><td style="font-weight:bold;vertical-align:top;">comment</td><td style="vertical-align:top;">:</td><td><div></div></td></tr><tr><td style="font-weight:bold;vertical-align:top;">domain</td><td style="vertical-align:top;">:</td><td><div></div></td></tr><tr><td style="font-weight:bold;vertical-align:top;">expires</td><td style="vertical-align:top;">:</td><td><div></div></td></tr><tr><td style="font-weight:bold;vertical-align:top;">httponly</td><td style="vertical-align:top;">:</td><td><div></div></td></tr><tr><td style="font-weight:bold;vertical-align:top;">max-age</td><td style="vertical-align:top;">:</td><td><div></div></td></tr><tr><td style="font-weight:bold;vertical-align:top;">path</td><td style="vertical-align:top;">:</td><td><div></div></td></tr><tr><td style="font-weight:bold;vertical-align:top;">secure</td><td style="vertical-align:top;">:</td><td><div></div></td></tr><tr><td style="font-weight:bold;vertical-align:top;">version</td><td style="vertical-align:top;">:</td><td><div></div></td></tr></table></div></td></tr><tr><td style="font-weight:bold;vertical-align:top;">session_id_app1</td><td style="vertical-align:top;">:</td><td><div>127.0.0.1-109758a7-f86a-457a-b84e-1b8d36b6cf83<table><tr><td style="font-weight:bold;vertical-align:top;">comment</td><td style="vertical-align:top;">:</td><td><div></div></td></tr><tr><td style="font-weight:bold;vertical-align:top;">domain</td><td style="vertical-align:top;">:</td><td><div></div></td></tr><tr><td style="font-weight:bold;vertical-align:top;">expires</td><td style="vertical-align:top;">:</td><td><div></div></td></tr><tr><td style="font-weight:bold;vertical-align:top;">httponly</td><td style="vertical-align:top;">:</td><td><div></div></td></tr><tr><td style="font-weight:bold;vertical-align:top;">max-age</td><td style="vertical-align:top;">:</td><td><div></div></td></tr><tr><td style="font-weight:bold;vertical-align:top;">path</td><td style="vertical-align:top;">:</td><td><div></div></td></tr><tr><td style="font-weight:bold;vertical-align:top;">secure</td><td style="vertical-align:top;">:</td><td><div></div></td></tr><tr><td style="font-weight:bold;vertical-align:top;">version</td><td style="vertical-align:top;">:</td><td><div></div></td></tr></table></div></td></tr><tr><td style="font-weight:bold;vertical-align:top;">session_id_app2</td><td style="vertical-align:top;">:</td><td><div>127.0.0.1-5e1bcff7-21aa-42cb-9545-ff7fddf8b6ec<table><tr><td style="font-weight:bold;vertical-align:top;">comment</td><td style="vertical-align:top;">:</td><td><div></div></td></tr><tr><td style="font-weight:bold;vertical-align:top;">domain</td><td style="vertical-align:top;">:</td><td><div></div></td></tr><tr><td style="font-weight:bold;vertical-align:top;">expires</td><td style="vertical-align:top;">:</td><td><div></div></td></tr><tr><td style="font-weight:bold;vertical-align:top;">httponly</td><td style="vertical-align:top;">:</td><td><div></div></td></tr><tr><td style="font-weight:bold;vertical-align:top;">max-age</td><td style="vertical-align:top;">:</td><td><div></div></td></tr><tr><td style="font-weight:bold;vertical-align:top;">path</td><td style="vertical-align:top;">:</td><td><div></div></td></tr><tr><td style="font-weight:bold;vertical-align:top;">secure</td><td style="vertical-align:top;">:</td><td><div></div></td></tr><tr><td style="font-weight:bold;vertical-align:top;">version</td><td style="vertical-align:top;">:</td><td><div></div></td></tr></table></div></td></tr><tr><td style="font-weight:bold;vertical-align:top;">session_id_blogpost</td><td style="vertical-align:top;">:</td><td><div>127.0.0.1-622995a6-a6d7-406b-9ca4-3d948a8ff4f4<table><tr><td style="font-weight:bold;vertical-align:top;">comment</td><td style="vertical-align:top;">:</td><td><div></div></td></tr><tr><td style="font-weight:bold;vertical-align:top;">domain</td><td style="vertical-align:top;">:</td><td><div></div></td></tr><tr><td style="font-weight:bold;vertical-align:top;">expires</td><td style="vertical-align:top;">:</td><td><div></div></td></tr><tr><td style="font-weight:bold;vertical-align:top;">httponly</td><td style="vertical-align:top;">:</td><td><div></div></td></tr><tr><td style="font-weight:bold;vertical-align:top;">max-age</td><td style="vertical-align:top;">:</td><td><div></div></td></tr><tr><td style="font-weight:bold;vertical-align:top;">path</td><td style="vertical-align:top;">:</td><td><div></div></td></tr><tr><td style="font-weight:bold;vertical-align:top;">secure</td><td style="vertical-align:top;">:</td><td><div></div></td></tr><tr><td style="font-weight:bold;vertical-align:top;">version</td><td style="vertical-align:top;">:</td><td><div></div></td></tr></table></div></td></tr><tr><td style="font-weight:bold;vertical-align:top;">session_id_images</td><td style="vertical-align:top;">:</td><td><div>127.0.0.1-46be8667-e84e-4453-a7e7-728b2c0b4806<table><tr><td style="font-weight:bold;vertical-align:top;">comment</td><td style="vertical-align:top;">:</td><td><div></div></td></tr><tr><td style="font-weight:bold;vertical-align:top;">domain</td><td style="vertical-align:top;">:</td><td><div></div></td></tr><tr><td style="font-weight:bold;vertical-align:top;">expires</td><td style="vertical-align:top;">:</td><td><div></div></td></tr><tr><td style="font-weight:bold;vertical-align:top;">httponly</td><td style="vertical-align:top;">:</td><td><div></div></td></tr><tr><td style="font-weight:bold;vertical-align:top;">max-age</td><td style="vertical-align:top;">:</td><td><div></div></td></tr><tr><td style="font-weight:bold;vertical-align:top;">path</td><td style="vertical-align:top;">:</td><td><div></div></td></tr><tr><td style="font-weight:bold;vertical-align:top;">secure</td><td style="vertical-align:top;">:</td><td><div></div></td></tr><tr><td style="font-weight:bold;vertical-align:top;">version</td><td style="vertical-align:top;">:</td><td><div></div></td></tr></table></div></td></tr><tr><td style="font-weight:bold;vertical-align:top;">session_id_jonastores</td><td style="vertical-align:top;">:</td><td><div>127.0.0.1-f6961734-fb9e-4e1c-b465-ac26ec3c1eb2<table><tr><td style="font-weight:bold;vertical-align:top;">comment</td><td style="vertical-align:top;">:</td><td><div></div></td></tr><tr><td style="font-weight:bold;vertical-align:top;">domain</td><td style="vertical-align:top;">:</td><td><div></div></td></tr><tr><td style="font-weight:bold;vertical-align:top;">expires</td><td style="vertical-align:top;">:</td><td><div></div></td></tr><tr><td style="font-weight:bold;vertical-align:top;">httponly</td><td style="vertical-align:top;">:</td><td><div></div></td></tr><tr><td style="font-weight:bold;vertical-align:top;">max-age</td><td style="vertical-align:top;">:</td><td><div></div></td></tr><tr><td style="font-weight:bold;vertical-align:top;">path</td><td style="vertical-align:top;">:</td><td><div></div></td></tr><tr><td style="font-weight:bold;vertical-align:top;">secure</td><td style="vertical-align:top;">:</td><td><div></div></td></tr><tr><td style="font-weight:bold;vertical-align:top;">version</td><td style="vertical-align:top;">:</td><td><div></div></td></tr></table></div></td></tr><tr><td style="font-weight:bold;vertical-align:top;">session_id_notepad</td><td style="vertical-align:top;">:</td><td><div>127.0.0.1-de8f696c-7234-4e23-a047-e450ac59efdc<table><tr><td style="font-weight:bold;vertical-align:top;">comment</td><td style="vertical-align:top;">:</td><td><div></div></td></tr><tr><td style="font-weight:bold;vertical-align:top;">domain</td><td style="vertical-align:top;">:</td><td><div></div></td></tr><tr><td style="font-weight:bold;vertical-align:top;">expires</td><td style="vertical-align:top;">:</td><td><div></div></td></tr><tr><td style="font-weight:bold;vertical-align:top;">httponly</td><td style="vertical-align:top;">:</td><td><div></div></td></tr><tr><td style="font-weight:bold;vertical-align:top;">max-age</td><td style="vertical-align:top;">:</td><td><div></div></td></tr><tr><td style="font-weight:bold;vertical-align:top;">path</td><td style="vertical-align:top;">:</td><td><div></div></td></tr><tr><td style="font-weight:bold;vertical-align:top;">secure</td><td style="vertical-align:top;">:</td><td><div></div></td></tr><tr><td style="font-weight:bold;vertical-align:top;">version</td><td style="vertical-align:top;">:</td><td><div></div></td></tr></table></div></td></tr><tr><td style="font-weight:bold;vertical-align:top;">session_id_reddit_clone</td><td style="vertical-align:top;">:</td><td><div>127.0.0.1-8d5d8cf9-72b2-4bbe-80c4-bbd4580b9619<table><tr><td style="font-weight:bold;vertical-align:top;">comment</td><td style="vertical-align:top;">:</td><td><div></div></td></tr><tr><td style="font-weight:bold;vertical-align:top;">domain</td><td style="vertical-align:top;">:</td><td><div></div></td></tr><tr><td style="font-weight:bold;vertical-align:top;">expires</td><td style="vertical-align:top;">:</td><td><div></div></td></tr><tr><td style="font-weight:bold;vertical-align:top;">httponly</td><td style="vertical-align:top;">:</td><td><div></div></td></tr><tr><td style="font-weight:bold;vertical-align:top;">max-age</td><td style="vertical-align:top;">:</td><td><div></div></td></tr><tr><td style="font-weight:bold;vertical-align:top;">path</td><td style="vertical-align:top;">:</td><td><div></div></td></tr><tr><td style="font-weight:bold;vertical-align:top;">secure</td><td style="vertical-align:top;">:</td><td><div></div></td></tr><tr><td style="font-weight:bold;vertical-align:top;">version</td><td style="vertical-align:top;">:</td><td><div></div></td></tr></table></div></td></tr><tr><td style="font-weight:bold;vertical-align:top;">session_id_welcome</td><td style="vertical-align:top;">:</td><td><div>127.0.0.1-0647ca05-2585-464b-97b8-ceb89319715a<table><tr><td style="font-weight:bold;vertical-align:top;">comment</td><td style="vertical-align:top;">:</td><td><div></div></td></tr><tr><td style="font-weight:bold;vertical-align:top;">domain</td><td style="vertical-align:top;">:</td><td><div></div></td></tr><tr><td style="font-weight:bold;vertical-align:top;">expires</td><td style="vertical-align:top;">:</td><td><div></div></td></tr><tr><td style="font-weight:bold;vertical-align:top;">httponly</td><td style="vertical-align:top;">:</td><td><div></div></td></tr><tr><td style="font-weight:bold;vertical-align:top;">max-age</td><td style="vertical-align:top;">:</td><td><div></div></td></tr><tr><td style="font-weight:bold;vertical-align:top;">path</td><td style="vertical-align:top;">:</td><td><div></div></td></tr><tr><td style="font-weight:bold;vertical-align:top;">secure</td><td style="vertical-align:top;">:</td><td><div></div></td></tr><tr><td style="font-weight:bold;vertical-align:top;">version</td><td style="vertical-align:top;">:</td><td><div></div></td></tr></table></div></td></tr></table></div></td></tr><tr><td style="font-weight:bold;vertical-align:top;">env</td><td style="vertical-align:top;">:</td><td><div><table><tr><td style="font-weight:bold;vertical-align:top;">HTTP_ACCEPT</td><td style="vertical-align:top;">:</td><td><div>text/html,application/xhtml+xml,application/xml;q=0.9,image/webp,image/apng,*/*;q=0.8</div></td></tr><tr><td style="font-weight:bold;vertical-align:top;">HTTP_ACCEPT_ENCODING</td><td style="vertical-align:top;">:</td><td><div>gzip, deflate, br</div></td></tr><tr><td style="font-weight:bold;vertical-align:top;">HTTP_ACCEPT_LANGUAGE</td><td style="vertical-align:top;">:</td><td><div>en-US,en;q=0.9</div></td></tr><tr><td style="font-weight:bold;vertical-align:top;">HTTP_CONNECTION</td><td style="vertical-align:top;">:</td><td><div>keep-alive</div></td></tr><tr><td style="font-weight:bold;vertical-align:top;">HTTP_COOKIE</td><td style="vertical-align:top;">:</td><td><div>session_id_app2=127.0.0.1-5e1bcff7-21aa-42cb-9545-ff7fddf8b6ec; session_id_admin=127.0.0.1-72b45055-5479-4d48-9867-7655f52fc6db; session_id_images=127.0.0.1-46be8667-e84e-4453-a7e7-728b2c0b4806; session_id_welcome=127.0.0.1-0647ca05-2585-464b-97b8-ceb89319715a; session_id_app1=127.0.0.1-109758a7-f86a-457a-b84e-1b8d36b6cf83; session_id_jonastores=127.0.0.1-f6961734-fb9e-4e1c-b465-ac26ec3c1eb2; session_id_add_notes=127.0.0.1-8d0d0853-1c51-4df9-b6c5-c163fe0ca36c; session_id_notepad=127.0.0.1-de8f696c-7234-4e23-a047-e450ac59efdc; session_id_blogpost=127.0.0.1-622995a6-a6d7-406b-9ca4-3d948a8ff4f4; session_id_reddit_clone=127.0.0.1-8d5d8cf9-72b2-4bbe-80c4-bbd4580b9619</div></td></tr><tr><td style="font-weight:bold;vertical-align:top;">HTTP_HOST</td><td style="vertical-align:top;">:</td><td><div>127.0.0.1:8000</div></td></tr><tr><td style="font-weight:bold;vertical-align:top;">HTTP_REFERER</td><td style="vertical-align:top;">:</td><td><div>http://127.0.0.1:8000/reddit_clone/default/index</div></td></tr><tr><td style="font-weight:bold;vertical-align:top;">HTTP_UPGRADE_INSECURE_REQUESTS</td><td style="vertical-align:top;">:</td><td><div>1</div></td></tr><tr><td style="font-weight:bold;vertical-align:top;">HTTP_USER_AGENT</td><td style="vertical-align:top;">:</td><td><div>Mozilla/5.0 (Windows NT 10.0; Win64; x64) AppleWebKit/537.36 (KHTML, like Gecko) Chrome/70.0.3538.102 Safari/537.36</div></td></tr><tr><td style="font-weight:bold;vertical-align:top;">PATH_INFO</td><td style="vertical-align:top;">:</td><td><div>/reddit_clone/default/list_post_by_votes/Programming</div></td></tr><tr><td style="font-weight:bold;vertical-align:top;">QUERY_STRING</td><td style="vertical-align:top;">:</td><td><div></div></td></tr><tr><td style="font-weight:bold;vertical-align:top;">REMOTE_ADDR</td><td style="vertical-align:top;">:</td><td><div>127.0.0.1</div></td></tr><tr><td style="font-weight:bold;vertical-align:top;">REMOTE_PORT</td><td style="vertical-align:top;">:</td><td><div>2640</div></td></tr><tr><td style="font-weight:bold;vertical-align:top;">REQUEST_METHOD</td><td style="vertical-align:top;">:</td><td><div>GET</div></td></tr><tr><td style="font-weight:bold;vertical-align:top;">SCRIPT_NAME</td><td style="vertical-align:top;">:</td><td><div></div></td></tr><tr><td style="font-weight:bold;vertical-align:top;">SERVER_NAME</td><td style="vertical-align:top;">:</td><td><div>DESKTOP-P20VVML</div></td></tr><tr><td style="font-weight:bold;vertical-align:top;">SERVER_PORT</td><td style="vertical-align:top;">:</td><td><div>8000</div></td></tr><tr><td style="font-weight:bold;vertical-align:top;">SERVER_PROTOCOL</td><td style="vertical-align:top;">:</td><td><div>HTTP/1.1</div></td></tr><tr><td style="font-weight:bold;vertical-align:top;">SERVER_SOFTWARE</td><td style="vertical-align:top;">:</td><td><div>Rocket 1.2.6</div></td></tr><tr><td style="font-weight:bold;vertical-align:top;">app_folders</td><td style="vertical-align:top;">:</td><td><div>set([&#x27;C:\\\\Users\\\\Godwithus\\\\Desktop\\\\Codetrain\\\\Beginner\\\\web2py\\\\1. we2py setup &amp; intro\\\\software\\\\windows\\\\web2py\\\\applications\\\\Notepad\\\\&#x27;, &#x27;C:\\\\Users\\\\Godwithus\\\\Desktop\\\\Codetrain\\\\Beginner\\\\web2py\\\\1. we2py setup &amp; intro\\\\software\\\\windows\\\\web2py\\\\applications\\\\admin\\\\&#x27;, &#x27;C:\\\\Users\\\\Godwithus\\\\Desktop\\\\Codetrain\\\\Beginner\\\\web2py\\\\1. we2py setup &amp; intro\\\\software\\\\windows\\\\web2py\\\\applications\\\\images\\\\&#x27;, &#x27;C:\\\\Users\\\\Godwithus\\\\Desktop\\\\Codetrain\\\\Beginner\\\\web2py\\\\1. we2py setup &amp; intro\\\\software\\\\windows\\\\web2py\\\\applications\\\\jonastores\\\\&#x27;, &#x27;C:\\\\Users\\\\Godwithus\\\\Desktop\\\\Codetrain\\\\Beginner\\\\web2py\\\\1. we2py setup &amp; intro\\\\software\\\\windows\\\\web2py\\\\applications\\\\welcome\\\\&#x27;, &#x27;C:\\\\Users\\\\Godwithus\\\\Desktop\\\\Codetrain\\\\Beginner\\\\web2py\\\\1. we2py setup &amp; intro\\\\software\\\\windows\\\\web2py\\\\applications\\\\App1\\\\&#x27;, &#x27;C:\\\\Users\\\\Godwithus\\\\Desktop\\\\Codetrain\\\\Beginner\\\\web2py\\\\1. we2py setup &amp; intro\\\\software\\\\windows\\\\web2py\\\\applications\\\\Add_Notes\\\\&#x27;, &#x27;C:\\\\Users\\\\Godwithus\\\\Desktop\\\\Codetrain\\\\Beginner\\\\web2py\\\\1. we2py setup &amp; intro\\\\software\\\\windows\\\\web2py\\\\applications\\\\App2\\\\&#x27;, &#x27;C:\\\\Users\\\\Godwithus\\\\Desktop\\\\Codetrain\\\\Beginner\\\\web2py\\\\1. we2py setup &amp; intro\\\\software\\\\windows\\\\web2py\\\\applications\\\\blogpost\\\\&#x27;, &#x27;C:\\\\Users\\\\Godwithus\\\\Desktop\\\\Codetrain\\\\Beginner\\\\web2py\\\\1. we2py setup &amp; intro\\\\software\\\\windows\\\\web2py\\\\applications\\\\reddit_clone\\\\&#x27;, &#x27;C:\\\\Users\\\\Godwithus\\\\Desktop\\\\Codetrain\\\\Beginner\\\\web2py\\\\1. we2py setup &amp; intro\\\\software\\\\windows\\\\web2py\\\\applications\\\\notepad\\\\&#x27;])</div></td></tr><tr><td style="font-weight:bold;vertical-align:top;">applications_parent</td><td style="vertical-align:top;">:</td><td><div>C:\\Users\\Godwithus\\Desktop\\Codetrain\\Beginner\\web2py\\1. we2py setup &amp; intro\\software\\windows\\web2py</div></td></tr><tr><td style="font-weight:bold;vertical-align:top;">cmd_args</td><td style="vertical-align:top;">:</td><td><div><table></table></div></td></tr><tr><td style="font-weight:bold;vertical-align:top;">cmd_options</td><td style="vertical-align:top;">:</td><td><div>&lt;Values at 0x3148030: {&#x27;verbose&#x27;: False, &#x27;ip&#x27;: &#x27;127.0.0.1&#x27;, &#x27;debuglevel&#x27;: 30, &#x27;with_scheduler&#x27;: False, &#x27;shutdown_timeout&#x27;: 5, &#x27;taskbar&#x27;: False, &#x27;with_coverage&#x27;: False, &#x27;pid_filename&#x27;: &#x27;httpserver.pid&#x27;, &#x27;maxthreads&#x27;: None, &#x27;softcron&#x27;: False, &#x27;server_name&#x27;: &#x27;DESKTOP-P20VVML&#x27;, &#x27;bpython&#x27;: False, &#x27;nogui&#x27;: False, &#x27;port&#x27;: 8000, &#x27;print_errors&#x27;: False, &#x27;extcron&#x27;: False, &#x27;runcron&#x27;: False, &#x27;run_system_tests&#x27;: False, &#x27;test&#x27;: None, &#x27;folder&#x27;: &#x27;C:\\\\Users\\\\Godwithus\\\\Desktop\\\\Codetrain\\\\Beginner\\\\web2py\\\\1. we2py setup &amp; intro\\\\software\\\\windows\\\\web2py&#x27;, &#x27;config&#x27;: &#x27;&#x27;, &#x27;minthreads&#x27;: None, &#x27;shell&#x27;: None, &#x27;run&#x27;: &#x27;&#x27;, &#x27;log_filename&#x27;: &#x27;httpserver.log&#x27;, &#x27;profiler_dir&#x27;: None, &#x27;args&#x27;: [&#x27;&#x27;], &#x27;socket_timeout&#x27;: 5, &#x27;ssl_ca_certificate&#x27;: None, &#x27;scheduler&#x27;: None, &#x27;interfaces&#x27;: None, &#x27;ssl_private_key&#x27;: &#x27;&#x27;, &#x27;gae&#x27;: None, &#x27;password&#x27;: &#x27;******&#x27;, &#x27;request_queue_size&#x27;: 5, &#x27;ssl_certificate&#x27;: &#x27;&#x27;, &#x27;cronjob&#x27;: False, &#x27;numthreads&#x27;: None, &#x27;quiet&#x27;: False, &#x27;import_models&#x27;: False, &#x27;timeout&#x27;: 10, &#x27;plain&#x27;: False, &#x27;nobanner&#x27;: False}&gt;</div></td></tr><tr><td style="font-weight:bold;vertical-align:top;">db_sessions</td><td style="vertical-align:top;">:</td><td><div>set([])</div></td></tr><tr><td style="font-weight:bold;vertical-align:top;">debugging</td><td style="vertical-align:top;">:</td><td><div>True</div></td></tr><tr><td style="font-weight:bold;vertical-align:top;">gluon_parent</td><td style="vertical-align:top;">:</td><td><div>C:\\Users\\Godwithus\\Desktop\\Codetrain\\Beginner\\web2py\\1. we2py setup &amp; intro\\software\\windows\\web2py</div></td></tr><tr><td style="font-weight:bold;vertical-align:top;">http_accept</td><td style="vertical-align:top;">:</td><td><div>text/html,application/xhtml+xml,application/xml;q=0.9,image/webp,image/apng,*/*;q=0.8</div></td></tr><tr><td style="font-weight:bold;vertical-align:top;">http_accept_encoding</td><td style="vertical-align:top;">:</td><td><div>gzip, deflate, br</div></td></tr><tr><td style="font-weight:bold;vertical-align:top;">http_accept_language</td><td style="vertical-align:top;">:</td><td><div>en-US,en;q=0.9</div></td></tr><tr><td style="font-weight:bold;vertical-align:top;">http_connection</td><td style="vertical-align:top;">:</td><td><div>keep-alive</div></td></tr><tr><td style="font-weight:bold;vertical-align:top;">http_cookie</td><td style="vertical-align:top;">:</td><td><div>session_id_app2=127.0.0.1-5e1bcff7-21aa-42cb-9545-ff7fddf8b6ec; session_id_admin=127.0.0.1-72b45055-5479-4d48-9867-7655f52fc6db; session_id_images=127.0.0.1-46be8667-e84e-4453-a7e7-728b2c0b4806; session_id_welcome=127.0.0.1-0647ca05-2585-464b-97b8-ceb89319715a; session_id_app1=127.0.0.1-109758a7-f86a-457a-b84e-1b8d36b6cf83; session_id_jonastores=127.0.0.1-f6961734-fb9e-4e1c-b465-ac26ec3c1eb2; session_id_add_notes=127.0.0.1-8d0d0853-1c51-4df9-b6c5-c163fe0ca36c; session_id_notepad=127.0.0.1-de8f696c-7234-4e23-a047-e450ac59efdc; session_id_blogpost=127.0.0.1-622995a6-a6d7-406b-9ca4-3d948a8ff4f4; session_id_reddit_clone=127.0.0.1-8d5d8cf9-72b2-4bbe-80c4-bbd4580b9619</div></td></tr><tr><td style="font-weight:bold;vertical-align:top;">http_host</td><td style="vertical-align:top;">:</td><td><div>127.0.0.1:8000</div></td></tr><tr><td style="font-weight:bold;vertical-align:top;">http_referer</td><td style="vertical-align:top;">:</td><td><div>http://127.0.0.1:8000/reddit_clone/default/index</div></td></tr><tr><td style="font-weight:bold;vertical-align:top;">http_upgrade_insecure_requests</td><td style="vertical-align:top;">:</td><td><div>1</div></td></tr><tr><td style="font-weight:bold;vertical-align:top;">http_user_agent</td><td style="vertical-align:top;">:</td><td><div>Mozilla/5.0 (Windows NT 10.0; Win64; x64) AppleWebKit/537.36 (KHTML, like Gecko) Chrome/70.0.3538.102 Safari/537.36</div></td></tr><tr><td style="font-weight:bold;vertical-align:top;">is_jython</td><td style="vertical-align:top;">:</td><td><div>False</div></td></tr><tr><td style="font-weight:bold;vertical-align:top;">is_py2</td><td style="vertical-align:top;">:</td><td><div>True</div></td></tr><tr><td style="font-weight:bold;vertical-align:top;">is_pypy</td><td style="vertical-align:top;">:</td><td><div>False</div></td></tr><tr><td style="font-weight:bold;vertical-align:top;">is_source</td><td style="vertical-align:top;">:</td><td><div>False</div></td></tr><tr><td style="font-weight:bold;vertical-align:top;">local_hosts</td><td style="vertical-align:top;">:</td><td><div><table><tr><td><div>::1</div></td></tr><tr><td><div>::ffff:127.0.0.1</div></td></tr><tr><td><div>127.0.0.1</div></td></tr><tr><td><div>DESKTOP-P20VVML</div></td></tr></table></div></td></tr><tr><td style="font-weight:bold;vertical-align:top;">path_info</td><td style="vertical-align:top;">:</td><td><div>/reddit_clone/default/list_post_by_votes/Programming</div></td></tr><tr><td style="font-weight:bold;vertical-align:top;">query_string</td><td style="vertical-align:top;">:</td><td><div></div></td></tr><tr><td style="font-weight:bold;vertical-align:top;">remote_addr</td><td style="vertical-align:top;">:</td><td><div>127.0.0.1</div></td></tr><tr><td style="font-weight:bold;vertical-align:top;">remote_port</td><td style="vertical-align:top;">:</td><td><div>2640</div></td></tr><tr><td style="font-weight:bold;vertical-align:top;">request_method</td><td style="vertical-align:top;">:</td><td><div>GET</div></td></tr><tr><td style="font-weight:bold;vertical-align:top;">request_uri</td><td style="vertical-align:top;">:</td><td><div>/reddit_clone/default/list_post_by_votes/Programming</div></td></tr><tr><td style="font-weight:bold;vertical-align:top;">script_name</td><td style="vertical-align:top;">:</td><td><div></div></td></tr><tr><td style="font-weight:bold;vertical-align:top;">server_name</td><td style="vertical-align:top;">:</td><td><div>DESKTOP-P20VVML</div></td></tr><tr><td style="font-weight:bold;vertical-align:top;">server_port</td><td style="vertical-align:top;">:</td><td><div>8000</div></td></tr><tr><td style="font-weight:bold;vertical-align:top;">server_protocol</td><td style="vertical-align:top;">:</td><td><div>HTTP/1.1</div></td></tr><tr><td style="font-weight:bold;vertical-align:top;">server_software</td><td style="vertical-align:top;">:</td><td><div>Rocket 1.2.6</div></td></tr><tr><td style="font-weight:bold;vertical-align:top;">web2py_original_uri</td><td style="vertical-align:top;">:</td><td><div>/reddit_clone/default/list_post_by_votes/Programming</div></td></tr><tr><td style="font-weight:bold;vertical-align:top;">web2py_path</td><td style="vertical-align:top;">:</td><td><div>C:\\Users\\Godwithus\\Desktop\\Codetrain\\Beginner\\web2py\\1. we2py setup &amp; intro\\software\\windows\\web2py</div></td></tr><tr><td style="font-weight:bold;vertical-align:top;">web2py_version</td><td style="vertical-align:top;">:</td><td><div>2.17.1-stable+timestamp.2018.08.06.01.02.56</div></td></tr><tr><td style="font-weight:bold;vertical-align:top;">wsgi.errors</td><td style="vertical-align:top;">:</td><td><div>&lt;open file &#x27;&lt;stderr&gt;&#x27;, mode &#x27;w&#x27; at 0x023BD0D0&gt;</div></td></tr><tr><td style="font-weight:bold;vertical-align:top;">wsgi.file_wrapper</td><td style="vertical-align:top;">:</td><td><div>&lt;class wsgiref.util.FileWrapper at 0x02F7EC00&gt;</div></td></tr><tr><td style="font-weight:bold;vertical-align:top;">wsgi.input</td><td style="vertical-align:top;">:</td><td><div>&lt;socket._fileobject object at 0x093FF4F0&gt;</div></td></tr><tr><td style="font-weight:bold;vertical-align:top;">wsgi.multiprocess</td><td style="vertical-align:top;">:</td><td><div>False</div></td></tr><tr><td style="font-weight:bold;vertical-align:top;">wsgi.multithread</td><td style="vertical-align:top;">:</td><td><div>True</div></td></tr><tr><td style="font-weight:bold;vertical-align:top;">wsgi.run_once</td><td style="vertical-align:top;">:</td><td><div>False</div></td></tr><tr><td style="font-weight:bold;vertical-align:top;">wsgi.url_scheme</td><td style="vertical-align:top;">:</td><td><div>http</div></td></tr><tr><td style="font-weight:bold;vertical-align:top;">wsgi.version</td><td style="vertical-align:top;">:</td><td><div><table><tr><td><div>1</div></td></tr><tr><td><div>0</div></td></tr></table></div></td></tr><tr><td style="font-weight:bold;vertical-align:top;">wsgi_errors</td><td style="vertical-align:top;">:</td><td><div>&lt;open file &#x27;&lt;stderr&gt;&#x27;, mode &#x27;w&#x27; at 0x023BD0D0&gt;</div></td></tr><tr><td style="font-weight:bold;vertical-align:top;">wsgi_file_wrapper</td><td style="vertical-align:top;">:</td><td><div>&lt;class wsgiref.util.FileWrapper at 0x02F7EC00&gt;</div></td></tr><tr><td style="font-weight:bold;vertical-align:top;">wsgi_input</td><td style="vertical-align:top;">:</td><td><div>&lt;socket._fileobject object at 0x093FF4F0&gt;</div></td></tr><tr><td style="font-weight:bold;vertical-align:top;">wsgi_multiprocess</td><td style="vertical-align:top;">:</td><td><div>False</div></td></tr><tr><td style="font-weight:bold;vertical-align:top;">wsgi_multithread</td><td style="vertical-align:top;">:</td><td><div>True</div></td></tr><tr><td style="font-weight:bold;vertical-align:top;">wsgi_run_once</td><td style="vertical-align:top;">:</td><td><div>False</div></td></tr><tr><td style="font-weight:bold;vertical-align:top;">wsgi_url_scheme</td><td style="vertical-align:top;">:</td><td><div>http</div></td></tr><tr><td style="font-weight:bold;vertical-align:top;">wsgi_version</td><td style="vertical-align:top;">:</td><td><div><table><tr><td><div>1</div></td></tr><tr><td><div>0</div></td></tr></table></div></td></tr></table></div></td></tr><tr><td style="font-weight:bold;vertical-align:top;">extension</td><td style="vertical-align:top;">:</td><td><div>html</div></td></tr><tr><td style="font-weight:bold;vertical-align:top;">folder</td><td style="vertical-align:top;">:</td><td><div>C:\\Users\\Godwithus\\Desktop\\Codetrain\\Beginner\\web2py\\1. we2py setup &amp; intro\\software\\windows\\web2py\\applications\\reddit_clone\\</div></td></tr><tr><td style="font-weight:bold;vertical-align:top;">function</td><td style="vertical-align:top;">:</td><td><div>list_post_by_votes</div></td></tr><tr><td style="font-weight:bold;vertical-align:top;">global_settings</td><td style="vertical-align:top;">:</td><td><div><table><tr><td style="font-weight:bold;vertical-align:top;">app_folders</td><td style="vertical-align:top;">:</td><td><div>set([&#x27;C:\\\\Users\\\\Godwithus\\\\Desktop\\\\Codetrain\\\\Beginner\\\\web2py\\\\1. we2py setup &amp; intro\\\\software\\\\windows\\\\web2py\\\\applications\\\\Notepad\\\\&#x27;, &#x27;C:\\\\Users\\\\Godwithus\\\\Desktop\\\\Codetrain\\\\Beginner\\\\web2py\\\\1. we2py setup &amp; intro\\\\software\\\\windows\\\\web2py\\\\applications\\\\admin\\\\&#x27;, &#x27;C:\\\\Users\\\\Godwithus\\\\Desktop\\\\Codetrain\\\\Beginner\\\\web2py\\\\1. we2py setup &amp; intro\\\\software\\\\windows\\\\web2py\\\\applications\\\\images\\\\&#x27;, &#x27;C:\\\\Users\\\\Godwithus\\\\Desktop\\\\Codetrain\\\\Beginner\\\\web2py\\\\1. we2py setup &amp; intro\\\\software\\\\windows\\\\web2py\\\\applications\\\\jonastores\\\\&#x27;, &#x27;C:\\\\Users\\\\Godwithus\\\\Desktop\\\\Codetrain\\\\Beginner\\\\web2py\\\\1. we2py setup &amp; intro\\\\software\\\\windows\\\\web2py\\\\applications\\\\welcome\\\\&#x27;, &#x27;C:\\\\Users\\\\Godwithus\\\\Desktop\\\\Codetrain\\\\Beginner\\\\web2py\\\\1. we2py setup &amp; intro\\\\software\\\\windows\\\\web2py\\\\applications\\\\App1\\\\&#x27;, &#x27;C:\\\\Users\\\\Godwithus\\\\Desktop\\\\Codetrain\\\\Beginner\\\\web2py\\\\1. we2py setup &amp; intro\\\\software\\\\windows\\\\web2py\\\\applications\\\\Add_Notes\\\\&#x27;, &#x27;C:\\\\Users\\\\Godwithus\\\\Desktop\\\\Codetrain\\\\Beginner\\\\web2py\\\\1. we2py setup &amp; intro\\\\software\\\\windows\\\\web2py\\\\applications\\\\App2\\\\&#x27;, &#x27;C:\\\\Users\\\\Godwithus\\\\Desktop\\\\Codetrain\\\\Beginner\\\\web2py\\\\1. we2py setup &amp; intro\\\\software\\\\windows\\\\web2py\\\\applications\\\\blogpost\\\\&#x27;, &#x27;C:\\\\Users\\\\Godwithus\\\\Desktop\\\\Codetrain\\\\Beginner\\\\web2py\\\\1. we2py setup &amp; intro\\\\software\\\\windows\\\\web2py\\\\applications\\\\reddit_clone\\\\&#x27;, &#x27;C:\\\\Users\\\\Godwithus\\\\Desktop\\\\Codetrain\\\\Beginner\\\\web2py\\\\1. we2py setup &amp; intro\\\\software\\\\windows\\\\web2py\\\\applications\\\\notepad\\\\&#x27;])</div></td></tr><tr><td style="font-weight:bold;vertical-align:top;">applications_parent</td><td style="vertical-align:top;">:</td><td><div>C:\\Users\\Godwithus\\Desktop\\Codetrain\\Beginner\\web2py\\1. we2py setup &amp; intro\\software\\windows\\web2py</div></td></tr><tr><td style="font-weight:bold;vertical-align:top;">cmd_args</td><td style="vertical-align:top;">:</td><td><div><table></table></div></td></tr><tr><td style="font-weight:bold;vertical-align:top;">cmd_options</td><td style="vertical-align:top;">:</td><td><div>&lt;Values at 0x3148030: {&#x27;verbose&#x27;: False, &#x27;ip&#x27;: &#x27;127.0.0.1&#x27;, &#x27;debuglevel&#x27;: 30, &#x27;with_scheduler&#x27;: False, &#x27;shutdown_timeout&#x27;: 5, &#x27;taskbar&#x27;: False, &#x27;with_coverage&#x27;: False, &#x27;pid_filename&#x27;: &#x27;httpserver.pid&#x27;, &#x27;maxthreads&#x27;: None, &#x27;softcron&#x27;: False, &#x27;server_name&#x27;: &#x27;DESKTOP-P20VVML&#x27;, &#x27;bpython&#x27;: False, &#x27;nogui&#x27;: False, &#x27;port&#x27;: 8000, &#x27;print_errors&#x27;: False, &#x27;extcron&#x27;: False, &#x27;runcron&#x27;: False, &#x27;run_system_tests&#x27;: False, &#x27;test&#x27;: None, &#x27;folder&#x27;: &#x27;C:\\\\Users\\\\Godwithus\\\\Desktop\\\\Codetrain\\\\Beginner\\\\web2py\\\\1. we2py setup &amp; intro\\\\software\\\\windows\\\\web2py&#x27;, &#x27;config&#x27;: &#x27;&#x27;, &#x27;minthreads&#x27;: None, &#x27;shell&#x27;: None, &#x27;run&#x27;: &#x27;&#x27;, &#x27;log_filename&#x27;: &#x27;httpserver.log&#x27;, &#x27;profiler_dir&#x27;: None, &#x27;args&#x27;: [&#x27;&#x27;], &#x27;socket_timeout&#x27;: 5, &#x27;ssl_ca_certificate&#x27;: None, &#x27;scheduler&#x27;: None, &#x27;interfaces&#x27;: None, &#x27;ssl_private_key&#x27;: &#x27;&#x27;, &#x27;gae&#x27;: None, &#x27;password&#x27;: &#x27;******&#x27;, &#x27;request_queue_size&#x27;: 5, &#x27;ssl_certificate&#x27;: &#x27;&#x27;, &#x27;cronjob&#x27;: False, &#x27;numthreads&#x27;: None, &#x27;quiet&#x27;: False, &#x27;import_models&#x27;: False, &#x27;timeout&#x27;: 10, &#x27;plain&#x27;: False, &#x27;nobanner&#x27;: False}&gt;</div></td></tr><tr><td style="font-weight:bold;vertical-align:top;">db_sessions</td><td style="vertical-align:top;">:</td><td><div>set([])</div></td></tr><tr><td style="font-weight:bold;vertical-align:top;">debugging</td><td style="vertical-align:top;">:</td><td><div>True</div></td></tr><tr><td style="font-weight:bold;vertical-align:top;">gluon_parent</td><td style="vertical-align:top;">:</td><td><div>C:\\Users\\Godwithus\\Desktop\\Codetrain\\Beginner\\web2py\\1. we2py setup &amp; intro\\software\\windows\\web2py</div></td></tr><tr><td style="font-weight:bold;vertical-align:top;">is_jython</td><td style="vertical-align:top;">:</td><td><div>False</div></td></tr><tr><td style="font-weight:bold;vertical-align:top;">is_py2</td><td style="vertical-align:top;">:</td><td><div>True</div></td></tr><tr><td style="font-weight:bold;vertical-align:top;">is_pypy</td><td style="vertical-align:top;">:</td><td><div>False</div></td></tr><tr><td style="font-weight:bold;vertical-align:top;">is_source</td><td style="vertical-align:top;">:</td><td><div>False</div></td></tr><tr><td style="font-weight:bold;vertical-align:top;">local_hosts</td><td style="vertical-align:top;">:</td><td><div><table><tr><td><div>::1</div></td></tr><tr><td><div>::ffff:127.0.0.1</div></td></tr><tr><td><div>127.0.0.1</div></td></tr><tr><td><div>DESKTOP-P20VVML</div></td></tr></table></div></td></tr><tr><td style="font-weight:bold;vertical-align:top;">web2py_version</td><td style="vertical-align:top;">:</td><td><div>2.17.1-stable+timestamp.2018.08.06.01.02.56</div></td></tr></table></div></td></tr><tr><td style="font-weight:bold;vertical-align:top;">is_https</td><td style="vertical-align:top;">:</td><td><div>False</div></td></tr><tr><td style="font-weight:bold;vertical-align:top;">is_local</td><td style="vertical-align:top;">:</td><td><div>True</div></td></tr><tr><td style="font-weight:bold;vertical-align:top;">is_restful</td><td style="vertical-align:top;">:</td><td><div>False</div></td></tr><tr><td style="font-weight:bold;vertical-align:top;">is_scheduler</td><td style="vertical-align:top;">:</td><td><div>False</div></td></tr><tr><td style="font-weight:bold;vertical-align:top;">is_shell</td><td style="vertical-align:top;">:</td><td><div>False</div></td></tr><tr><td style="font-weight:bold;vertical-align:top;">method</td><td style="vertical-align:top;">:</td><td><div>GET</div></td></tr><tr><td style="font-weight:bold;vertical-align:top;">now</td><td style="vertical-align:top;">:</td><td><div>datetime.datetime(2018, 12, 2, 12, 10, 28, 145000)</div></td></tr><tr><td style="font-weight:bold;vertical-align:top;">raw_args</td><td style="vertical-align:top;">:</td><td><div>Programming</div></td></tr><tr><td style="font-weight:bold;vertical-align:top;">raw_extension</td><td style="vertical-align:top;">:</td><td><div>None</div></td></tr><tr><td style="font-weight:bold;vertical-align:top;">url</td><td style="vertical-align:top;">:</td><td><div>/reddit_clone/default/list_post_by_votes/Programming</div></td></tr><tr><td style="font-weight:bold;vertical-align:top;">utcnow</td><td style="vertical-align:top;">:</td><td><div>datetime.datetime(2018, 12, 2, 12, 10, 28, 145000)</div></td></tr><tr><td style="font-weight:bold;vertical-align:top;">wsgi</td><td style="vertical-align:top;">:</td><td><div>&lt;gluon.main.LazyWSGI object at 0x0BD69A70&gt;</div></td></tr></table></div>'
tRp69
sS'frames'
p70
(lp71
(dp72
S'file'
p73
S'C:\\Users\\Godwithus\\Desktop\\Codetrain\\Beginner\\web2py\\1. we2py setup & intro\\software\\windows\\web2py\\gluon\\main.py'
p74
sS'dump'
p75
(dp76
S'global serve_controller'
p77
S'<function serve_controller>'
p78
sS'session'
p79
S"<Storage {'last_orderby': None, 'last_query': 'd...ate]': ['86945f99-6f3d-4c72-a510-d1d15de5cd4b']}>"
p80
sS'request'
p81
S"<Storage {'function': 'list_post_by_votes', 'coo...False, 'is_https': False, 'client': '127.0.0.1'}>"
p82
sS'response'
p83
S"<Storage {'body': <cStringIO.StringO object at 0...530>, 'view': 'default/list_post_by_votes.html'}>"
p84
ssS'lnum'
p85
I446
sS'lines'
p86
(dp87
I448
S'                http_response = hr'
p88
sI449
S''
sI450
S'                if static_file:'
p89
sI441
S'                if global_settings.debugging and app != "admin":'
p90
sI442
S'                    import gluon.debug'
p91
sI443
S'                    # activate the debugger'
p92
sI444
S'                    gluon.debug.dbg.do_debug(mainpyfile=request.folder)'
p93
sI445
S''
sI446
S'                serve_controller(request, response, session)'
p94
sI447
S'            except HTTP as hr:'
p95
ssS'call'
p96
S"(environ={'HTTP_ACCEPT': 'text/html,application/xhtml+xml,application/xml;q=0.9,image/webp,image/apng,*/*;q=0.8', 'HTTP_ACCEPT_ENCODING': 'gzip, deflate, br', 'HTTP_ACCEPT_LANGUAGE': 'en-US,en;q=0.9', 'HTTP_CONNECTION': 'keep-alive', 'HTTP_COOKIE': 'session_id_app2=127.0.0.1-5e1bcff7-21aa-42cb-954...ne=127.0.0.1-8d5d8cf9-72b2-4bbe-80c4-bbd4580b9619', 'HTTP_HOST': '127.0.0.1:8000', 'HTTP_REFERER': 'http://127.0.0.1:8000/reddit_clone/default/index', 'HTTP_UPGRADE_INSECURE_REQUESTS': '1', 'HTTP_USER_AGENT': 'Mozilla/5.0 (Windows NT 10.0; Win64; x64) AppleW...L, like Gecko) Chrome/70.0.3538.102 Safari/537.36', 'PATH_INFO': '/reddit_clone/default/list_post_by_votes/Programming', ...}, responder=<function responder2>)"
p97
sS'func'
p98
S'wsgibase'
p99
sa(dp100
g73
S'C:\\Users\\Godwithus\\Desktop\\Codetrain\\Beginner\\web2py\\1. we2py setup & intro\\software\\windows\\web2py\\gluon\\main.py'
p101
sg75
(dp102
S'response._view_environment'
p103
S"{'A': <class 'gluon.html.A'>, 'ANY_OF': <class 'gluon.validators.ANY_OF'>, 'ASSIGNJS': <function ASSIGNJS>, 'AppConfig': <function AppConfig>, 'Auth': <class 'gluon.tools.Auth'>, 'B': <class 'gluon.html.B'>, 'BEAUTIFY': <class 'gluon.html.BEAUTIFY'>, 'BODY': <class 'gluon.html.BODY'>, 'BR': <class 'gluon.html.BR'>, 'BUTTON': <class 'gluon.html.BUTTON'>, ...}"
p104
sS'page'
p105
S'{\'category\': <Row {\'post\': <Set ("post"."category" = 1)>, \'id\': 1L, \'name\': \'Programming\'}>, \'page\': 0, \'rows\': <Rows (10)>, \'start\': 0, \'stop\': 10}'
p106
sS'global run_view_in'
p107
S'<function run_view_in>'
p108
sS'response'
p109
S"<Storage {'body': <cStringIO.StringO object at 0...530>, 'view': 'default/list_post_by_votes.html'}>"
p110
ssg85
I184
sg86
(dp111
I179
S'    response._view_environment = copy.copy(environment)'
p112
sI180
S'    page = run_controller_in(request.controller, request.function, environment)'
p113
sI181
S'    if isinstance(page, dict):'
p114
sI182
S'        response._vars = page'
p115
sI183
S'        response._view_environment.update(page)'
p116
sI184
S'        page = run_view_in(response._view_environment)'
p117
sI185
S''
sI186
S'    if not request.env.web2py_disable_garbage_collect:'
p118
sI187
S'        # logic to garbage collect after exec, not always, once every 100 requests'
p119
sI188
S'        global requests'
p120
ssg96
S"(request=<Storage {'function': 'list_post_by_votes', 'coo...False, 'is_https': False, 'client': '127.0.0.1'}>, response=<Storage {'body': <cStringIO.StringO object at 0...530>, 'view': 'default/list_post_by_votes.html'}>, session=<Storage {'last_orderby': None, 'last_query': 'd...ate]': ['86945f99-6f3d-4c72-a510-d1d15de5cd4b']}>)"
p121
sg98
S'serve_controller'
p122
sa(dp123
g73
S'C:\\Users\\Godwithus\\Desktop\\Codetrain\\Beginner\\web2py\\1. we2py setup & intro\\software\\windows\\web2py\\gluon\\compileapp.py'
p124
sg75
(dp125
S'filename'
p126
S"r'C:\\Users\\Godwithus\\Desktop\\Codetrain\\Beginner\\we...eddit_clone\\views\\default/list_post_by_votes.html'"
p127
sS'global compile2'
p128
S'<function compile2>'
p129
sS'ccode'
p130
S'undefined'
p131
sS'scode'
p132
S'"response.write(\'<!-- \', escape=False)\\nextent \'la...=False)\\npass\\nresponse.write(\' -->\', escape=False)"'
p133
ssg85
I726
sg86
(dp134
I721
S'            # Parse template'
p135
sI722
S'            scode = parse_template(view,'
p136
sI723
S"                                   pjoin(folder, 'views'),"
p137
sI724
S'                                   context=environment)'
p138
sI725
S'            # Compile template'
p139
sI726
S'            ccode = compile2(scode, filename)'
p140
sI727
S'            layer = filename'
p141
sI728
S'    restricted(ccode, environment, layer=layer, scode=scode)'
p142
sI729
S'    # parse_template saves everything in response body'
p143
sI730
S"    return environment['response'].body.getvalue()"
p144
ssg96
S"(environment={'A': <class 'gluon.html.A'>, 'ANY_OF': <class 'gluon.validators.ANY_OF'>, 'ASSIGNJS': <function ASSIGNJS>, 'AppConfig': <function AppConfig>, 'Auth': <class 'gluon.tools.Auth'>, 'B': <class 'gluon.html.B'>, 'BEAUTIFY': <class 'gluon.html.BEAUTIFY'>, 'BODY': <class 'gluon.html.BODY'>, 'BR': <class 'gluon.html.BR'>, 'BUTTON': <class 'gluon.html.BUTTON'>, ...})"
p145
sg98
S'run_view_in'
p146
sa(dp147
g73
S'C:\\Users\\Godwithus\\Desktop\\Codetrain\\Beginner\\web2py\\1. we2py setup & intro\\software\\windows\\web2py\\gluon\\restricted.py'
p148
sg75
(dp149
S'builtincompile'
p150
S'<built-in function compile>'
p151
sS'code'
p152
S'"response.write(\'<!-- \', escape=False)\\nextent \'la...=False)\\npass\\nresponse.write(\' -->\', escape=False)"'
p153
sS'layer'
p154
S"r'C:\\Users\\Godwithus\\Desktop\\Codetrain\\Beginner\\we...eddit_clone\\views\\default/list_post_by_votes.html'"
p155
ssg85
I205
sg86
(dp156
I200
S'            output = ""'
p157
sI201
S'        return output'
p158
sI202
S''
sI203
S''
sI204
S'def compile2(code, layer):'
p159
sI205
S"    return compile(code, layer, 'exec')"
p160
sI206
S''
sI207
S''
sI208
S"def restricted(ccode, environment=None, layer='Unknown', scode=None):"
p161
sI209
S'    """'
p162
ssg96
S'(code="response.write(\'<!-- \', escape=False)\\nextent \'la...=False)\\npass\\nresponse.write(\' -->\', escape=False)", layer=r\'C:\\Users\\Godwithus\\Desktop\\Codetrain\\Beginner\\we...eddit_clone\\views\\default/list_post_by_votes.html\')'
p163
sg98
S'compile2'
p164
sasS'pyver'
p165
S'Python 2.7.9: C:\\Users\\Godwithus\\Desktop\\Codetrain\\Beginner\\web2py\\1. we2py setup & intro\\software\\windows\\web2py\\web2py.exe (prefix: )'
p166
sS'session'
p167
g68
(S's\xbb\x01\x00\x00<div><table><tr><td style="font-weight:bold;vertical-align:top;">flash</td><td style="vertical-align:top;">:</td><td><div>None</div></td></tr><tr><td style="font-weight:bold;vertical-align:top;">last_orderby</td><td style="vertical-align:top;">:</td><td><div>None</div></td></tr><tr><td style="font-weight:bold;vertical-align:top;">last_query</td><td style="vertical-align:top;">:</td><td><div>db.category.id&gt;0</div></td></tr></table></div>'
tRp168
sS'etype'
p169
S"<type 'exceptions.SyntaxError'>"
p170
sS'date'
p171
S'Sun Dec 02 12:10:28 2018'
p172
sS'response'
p173
g68
(S's\xd9\x1f\x00\x00<div><table><tr><td style="font-weight:bold;vertical-align:top;">body</td><td style="vertical-align:top;">:</td><td><div>&lt;cStringIO.StringO object at 0x093F3460&gt;</div></td></tr><tr><td style="font-weight:bold;vertical-align:top;">cookies</td><td style="vertical-align:top;">:</td><td><div><table><tr><td style="font-weight:bold;vertical-align:top;">session_id_reddit_clone</td><td style="vertical-align:top;">:</td><td><div>127.0.0.1-8d5d8cf9-72b2-4bbe-80c4-bbd4580b9619<table><tr><td style="font-weight:bold;vertical-align:top;">comment</td><td style="vertical-align:top;">:</td><td><div></div></td></tr><tr><td style="font-weight:bold;vertical-align:top;">domain</td><td style="vertical-align:top;">:</td><td><div></div></td></tr><tr><td style="font-weight:bold;vertical-align:top;">expires</td><td style="vertical-align:top;">:</td><td><div></div></td></tr><tr><td style="font-weight:bold;vertical-align:top;">httponly</td><td style="vertical-align:top;">:</td><td><div></div></td></tr><tr><td style="font-weight:bold;vertical-align:top;">max-age</td><td style="vertical-align:top;">:</td><td><div></div></td></tr><tr><td style="font-weight:bold;vertical-align:top;">path</td><td style="vertical-align:top;">:</td><td><div>/</div></td></tr><tr><td style="font-weight:bold;vertical-align:top;">secure</td><td style="vertical-align:top;">:</td><td><div></div></td></tr><tr><td style="font-weight:bold;vertical-align:top;">version</td><td style="vertical-align:top;">:</td><td><div></div></td></tr></table></div></td></tr></table></div></td></tr><tr><td style="font-weight:bold;vertical-align:top;">delimiters</td><td style="vertical-align:top;">:</td><td><div><table><tr><td><div>{{</div></td></tr><tr><td><div>}}</div></td></tr></table></div></td></tr><tr><td style="font-weight:bold;vertical-align:top;">files</td><td style="vertical-align:top;">:</td><td><div><table></table></div></td></tr><tr><td style="font-weight:bold;vertical-align:top;">flash</td><td style="vertical-align:top;">:</td><td><div></div></td></tr><tr><td style="font-weight:bold;vertical-align:top;">form_label_separator</td><td style="vertical-align:top;">:</td><td><div></div></td></tr><tr><td style="font-weight:bold;vertical-align:top;">formstyle</td><td style="vertical-align:top;">:</td><td><div>bootstrap4_inline</div></td></tr><tr><td style="font-weight:bold;vertical-align:top;">generic_patterns</td><td style="vertical-align:top;">:</td><td><div><table><tr><td><div>*</div></td></tr></table></div></td></tr><tr><td style="font-weight:bold;vertical-align:top;">google_analytics_id</td><td style="vertical-align:top;">:</td><td><div>None</div></td></tr><tr><td style="font-weight:bold;vertical-align:top;">headers</td><td style="vertical-align:top;">:</td><td><div><table><tr><td style="font-weight:bold;vertical-align:top;">X-Powered-By</td><td style="vertical-align:top;">:</td><td><div>web2py</div></td></tr></table></div></td></tr><tr><td style="font-weight:bold;vertical-align:top;">menu</td><td style="vertical-align:top;">:</td><td><div><table><tr><td><div><table><tr><td><div>Home</div></td></tr><tr><td><div>False</div></td></tr><tr><td><div>/reddit_clone/default/index</div></td></tr></table></div></td></tr><tr><td><div><table><tr><td><div>Programming</div></td></tr><tr><td><div>False</div></td></tr><tr><td><div>/reddit_clone/default/list_post_by_votes/Programming</div></td></tr></table></div></td></tr><tr><td><div><table><tr><td><div>Politics</div></td></tr><tr><td><div>False</div></td></tr><tr><td><div>/reddit_clone/default/list_post_by_votes/Politics</div></td></tr></table></div></td></tr><tr><td><div><table><tr><td><div>Science</div></td></tr><tr><td><div>False</div></td></tr><tr><td><div>/reddit_clone/default/list_post_by_votes/Science</div></td></tr></table></div></td></tr><tr><td><div><table><tr><td><div>Politics</div></td></tr><tr><td><div>False</div></td></tr><tr><td><div>/reddit_clone/default/list_post_by_votes/politics</div></td></tr></table></div></td></tr></table></div></td></tr><tr><td style="font-weight:bold;vertical-align:top;">meta</td><td style="vertical-align:top;">:</td><td><div><table><tr><td style="font-weight:bold;vertical-align:top;">author</td><td style="vertical-align:top;">:</td><td><div>Your Name &lt;you@example.com&gt;</div></td></tr><tr><td style="font-weight:bold;vertical-align:top;">description</td><td style="vertical-align:top;">:</td><td><div>a cool new app</div></td></tr><tr><td style="font-weight:bold;vertical-align:top;">generator</td><td style="vertical-align:top;">:</td><td><div>Web2py Web Framework</div></td></tr><tr><td style="font-weight:bold;vertical-align:top;">keywords</td><td style="vertical-align:top;">:</td><td><div><table><tr><td><div>web2py</div></td></tr><tr><td><div>python</div></td></tr><tr><td><div>framework</div></td></tr></table></div></td></tr></table></div></td></tr><tr><td style="font-weight:bold;vertical-align:top;">models_to_run</td><td style="vertical-align:top;">:</td><td><div><table><tr><td><div>^\\w+\\.py$</div></td></tr><tr><td><div>^default/\\w+\\.py$</div></td></tr><tr><td><div>^default/list_post_by_votes/\\w+\\.py$</div></td></tr></table></div></td></tr><tr><td style="font-weight:bold;vertical-align:top;">postprocessing</td><td style="vertical-align:top;">:</td><td><div><table></table></div></td></tr><tr><td style="font-weight:bold;vertical-align:top;">session_client</td><td style="vertical-align:top;">:</td><td><div>127.0.0.1</div></td></tr><tr><td style="font-weight:bold;vertical-align:top;">session_cookie_compression_level</td><td style="vertical-align:top;">:</td><td><div>None</div></td></tr><tr><td style="font-weight:bold;vertical-align:top;">session_cookie_expires</td><td style="vertical-align:top;">:</td><td><div>None</div></td></tr><tr><td style="font-weight:bold;vertical-align:top;">session_data_name</td><td style="vertical-align:top;">:</td><td><div>session_data_reddit_clone</div></td></tr><tr><td style="font-weight:bold;vertical-align:top;">session_file</td><td style="vertical-align:top;">:</td><td><div>&lt;open file &#x27;C:\\\\Users\\\\Godwithus\\\\Desktop\\\\Codetrain\\\\Beginner\\\\web2py\\\\1. we2py setup &amp; intro\\\\software\\\\windows\\\\web2py\\\\applications\\\\reddit_clone\\\\sessions\\\\192\\\\0b9\\\\127.0.0.1-8d5d8cf9-72b2-4bbe-80c4-bbd4580b9619&#x27;, mode &#x27;rb+&#x27; at 0x0A1F1A70&gt;</div></td></tr><tr><td style="font-weight:bold;vertical-align:top;">session_filename</td><td style="vertical-align:top;">:</td><td><div>C:\\Users\\Godwithus\\Desktop\\Codetrain\\Beginner\\web2py\\1. we2py setup &amp; intro\\software\\windows\\web2py\\applications\\reddit_clone\\sessions\\127.0.0.1-8d5d8cf9-72b2-4bbe-80c4-bbd4580b9619</div></td></tr><tr><td style="font-weight:bold;vertical-align:top;">session_hash</td><td style="vertical-align:top;">:</td><td><div>a840138089c4680abf313dd14f05fc42</div></td></tr><tr><td style="font-weight:bold;vertical-align:top;">session_id</td><td style="vertical-align:top;">:</td><td><div>127.0.0.1-8d5d8cf9-72b2-4bbe-80c4-bbd4580b9619</div></td></tr><tr><td style="font-weight:bold;vertical-align:top;">session_id_name</td><td style="vertical-align:top;">:</td><td><div>session_id_reddit_clone</div></td></tr><tr><td style="font-weight:bold;vertical-align:top;">session_locked</td><td style="vertical-align:top;">:</td><td><div>True</div></td></tr><tr><td style="font-weight:bold;vertical-align:top;">session_masterapp</td><td style="vertical-align:top;">:</td><td><div>reddit_clone</div></td></tr><tr><td style="font-weight:bold;vertical-align:top;">session_new</td><td style="vertical-align:top;">:</td><td><div>False</div></td></tr><tr><td style="font-weight:bold;vertical-align:top;">session_storage_type</td><td style="vertical-align:top;">:</td><td><div>file</div></td></tr><tr><td style="font-weight:bold;vertical-align:top;">show_toolbar</td><td style="vertical-align:top;">:</td><td><div>False</div></td></tr><tr><td style="font-weight:bold;vertical-align:top;">status</td><td style="vertical-align:top;">:</td><td><div>200</div></td></tr><tr><td style="font-weight:bold;vertical-align:top;">view</td><td style="vertical-align:top;">:</td><td><div>default/list_post_by_votes.html</div></td></tr></table></div>'
tRp174
sS'locals'
p175
(dp176
g3
S"r'C:\\Users\\Godwithus\\Desktop\\Codetrain\\Beginner\\we...eddit_clone\\views\\default/list_post_by_votes.html'"
p177
sg5
S'"response.write(\'<!-- \', escape=False)\\nextent \'la...=False)\\npass\\nresponse.write(\' -->\', escape=False)"'
p178
sssS'traceback'
p179
S'Traceback (most recent call last):\n  File "C:\\Users\\Godwithus\\Desktop\\Codetrain\\Beginner\\web2py\\1. we2py setup & intro\\software\\windows\\web2py\\gluon\\main.py", line 446, in wsgibase\n    serve_controller(request, response, session)\n  File "C:\\Users\\Godwithus\\Desktop\\Codetrain\\Beginner\\web2py\\1. we2py setup & intro\\software\\windows\\web2py\\gluon\\main.py", line 184, in serve_controller\n    page = run_view_in(response._view_environment)\n  File "C:\\Users\\Godwithus\\Desktop\\Codetrain\\Beginner\\web2py\\1. we2py setup & intro\\software\\windows\\web2py\\gluon\\compileapp.py", line 726, in run_view_in\n    ccode = compile2(scode, filename)\n  File "C:\\Users\\Godwithus\\Desktop\\Codetrain\\Beginner\\web2py\\1. we2py setup & intro\\software\\windows\\web2py\\gluon\\restricted.py", line 205, in compile2\n    return compile(code, layer, \'exec\')\n  File "C:\\Users\\Godwithus\\Desktop\\Codetrain\\Beginner\\web2py\\1. we2py setup & intro\\software\\windows\\web2py\\applications\\reddit_clone\\views\\default/list_post_by_votes.html", line 2\n    extent \'layout.html\'\n                       ^\nSyntaxError: invalid syntax\n'
p180
s.